target datalayout = "e-m:e-p270:32:32-p271:32:32-p272:64:64-i64:64-i128:128-f80:128-n8:16:32:64-S128"
target triple = "x86_64-pc-linux-gnu"

%"class.std::__cxx11::basic_string" = type { %"struct.std::__cxx11::basic_string<char>::_Alloc_hider", i64, %union.anon }
%"struct.std::__cxx11::basic_string<char>::_Alloc_hider" = type { ptr }
%union.anon = type { i64, [8 x i8] }
%"class.absl::lts_20240722::AlphaNum" = type { %"class.std::basic_string_view", [32 x i8] }
%"class.std::basic_string_view" = type { i64, ptr }
%"struct.grpc_core::chttp2::TransportFlowControl::Stats" = type { i64, i64, i64, i32, i32, i32, i64, i64, i64, i64, i64, double }

@.str.16 = private unnamed_addr constant [16 x i8] c"target_window: \00", align 1
@.str.17 = private unnamed_addr constant [21 x i8] c" target_frame_size: \00", align 1
@.str.18 = private unnamed_addr constant [41 x i8] c" target_preferred_rx_crypto_frame_size: \00", align 1
@.str.19 = private unnamed_addr constant [21 x i8] c" acked_init_window: \00", align 1
@.str.20 = private unnamed_addr constant [22 x i8] c" queued_init_window: \00", align 1
@.str.21 = private unnamed_addr constant [20 x i8] c" sent_init_window: \00", align 1
@.str.22 = private unnamed_addr constant [17 x i8] c" remote_window: \00", align 1
@.str.23 = private unnamed_addr constant [20 x i8] c" announced_window: \00", align 1
@.str.24 = private unnamed_addr constant [47 x i8] c" announced_stream_total_over_incoming_window: \00", align 1
@.str.25 = private unnamed_addr constant [19 x i8] c" bdp_accumulator: \00", align 1
@.str.26 = private unnamed_addr constant [16 x i8] c" bdp_estimate: \00", align 1
@.str.27 = private unnamed_addr constant [14 x i8] c" bdp_bw_est: \00", align 1

; Function Attrs: noinline noreturn nounwind uwtable
define linkonce_odr hidden void @__clang_call_terminate(ptr noundef %0) #15 comdat {
  %2 = call ptr @__cxa_begin_catch(ptr %0) #3
  call void @_ZSt9terminatev() #22
  unreachable
}

; Function Attrs: mustprogress nounwind uwtable
define linkonce_odr noundef i64 @_ZNSt11char_traitsIcE6lengthEPKc(ptr noundef %0) #8 comdat align 2 {
  %2 = alloca ptr, align 8
  store ptr %0, ptr %2, align 8, !tbaa !10
  %3 = load ptr, ptr %2, align 8, !tbaa !10
  %4 = call i64 @strlen(ptr noundef %3) #3
  ret i64 %4
}

; Function Attrs: mustprogress nounwind uwtable
define linkonce_odr void @_ZNSt17basic_string_viewIcSt11char_traitsIcEEC2Ev(ptr noundef nonnull align 8 dereferenceable(16) %0) unnamed_addr #8 comdat align 2 {
  %2 = alloca ptr, align 8
  store ptr %0, ptr %2, align 8, !tbaa !36
  %3 = load ptr, ptr %2, align 8
  %4 = getelementptr inbounds nuw %"class.std::basic_string_view", ptr %3, i32 0, i32 0
  store i64 0, ptr %4, align 8, !tbaa !38
  %5 = getelementptr inbounds nuw %"class.std::basic_string_view", ptr %3, i32 0, i32 1
  store ptr null, ptr %5, align 8, !tbaa !40
  ret void
}

; Function Attrs: mustprogress nounwind uwtable
define linkonce_odr void @_ZNSt17basic_string_viewIcSt11char_traitsIcEEC2EPKc(ptr noundef nonnull align 8 dereferenceable(16) %0, ptr noundef nonnull %1) unnamed_addr #8 comdat align 2 personality ptr @__gxx_personality_v0 {
  %3 = alloca ptr, align 8
  %4 = alloca ptr, align 8
  store ptr %0, ptr %3, align 8, !tbaa !36
  store ptr %1, ptr %4, align 8, !tbaa !10
  %5 = load ptr, ptr %3, align 8
  %6 = getelementptr inbounds nuw %"class.std::basic_string_view", ptr %5, i32 0, i32 0
  %7 = load ptr, ptr %4, align 8, !tbaa !10
  %8 = invoke noundef i64 @_ZNSt11char_traitsIcE6lengthEPKc(ptr noundef %7)
          to label %9 unwind label %12

9:                                                ; preds = %2
  store i64 %8, ptr %6, align 8, !tbaa !38
  %10 = getelementptr inbounds nuw %"class.std::basic_string_view", ptr %5, i32 0, i32 1
  %11 = load ptr, ptr %4, align 8, !tbaa !10
  store ptr %11, ptr %10, align 8, !tbaa !40
  ret void

12:                                               ; preds = %2
  %13 = landingpad { ptr, i32 }
          catch ptr null
  %14 = extractvalue { ptr, i32 } %13, 0
  call void @__clang_call_terminate(ptr %14) #22
  unreachable
}

; Function Attrs: mustprogress nounwind uwtable
define linkonce_odr void @_ZNSt17basic_string_viewIcSt11char_traitsIcEEC2EPKcm(ptr noundef nonnull align 8 dereferenceable(16) %0, ptr noundef %1, i64 noundef %2) unnamed_addr #8 comdat align 2 {
  %4 = alloca ptr, align 8
  %5 = alloca ptr, align 8
  %6 = alloca i64, align 8
  store ptr %0, ptr %4, align 8, !tbaa !36
  store ptr %1, ptr %5, align 8, !tbaa !10
  store i64 %2, ptr %6, align 8, !tbaa !34
  %7 = load ptr, ptr %4, align 8
  %8 = getelementptr inbounds nuw %"class.std::basic_string_view", ptr %7, i32 0, i32 0
  %9 = load i64, ptr %6, align 8, !tbaa !34
  store i64 %9, ptr %8, align 8, !tbaa !38
  %10 = getelementptr inbounds nuw %"class.std::basic_string_view", ptr %7, i32 0, i32 1
  %11 = load ptr, ptr %5, align 8, !tbaa !10
  store ptr %11, ptr %10, align 8, !tbaa !40
  ret void
}

; Function Attrs: mustprogress nounwind uwtable
define linkonce_odr { i64, ptr } @_ZN4absl12lts_2024072218NullSafeStringViewEPKc(ptr noundef %0) #8 comdat {
  %2 = alloca %"class.std::basic_string_view", align 8
  %3 = alloca ptr, align 8
  store ptr %0, ptr %3, align 8, !tbaa !10
  %4 = load ptr, ptr %3, align 8, !tbaa !10
  %5 = icmp ne ptr %4, null
  br i1 %5, label %6, label %8

6:                                                ; preds = %1
  %7 = load ptr, ptr %3, align 8, !tbaa !10
  call void @_ZNSt17basic_string_viewIcSt11char_traitsIcEEC2EPKc(ptr noundef nonnull align 8 dereferenceable(16) %2, ptr noundef %7) #3
  br label %9

8:                                                ; preds = %1
  call void @_ZNSt17basic_string_viewIcSt11char_traitsIcEEC2Ev(ptr noundef nonnull align 8 dereferenceable(16) %2) #3
  br label %9

9:                                                ; preds = %8, %6
  %10 = load { i64, ptr }, ptr %2, align 8
  ret { i64, ptr } %10
}

; Function Attrs: mustprogress uwtable
define linkonce_odr void @_ZN4absl12lts_202407228AlphaNumC2El(ptr noundef nonnull align 8 dereferenceable(48) %0, i64 noundef %1) unnamed_addr #4 comdat align 2 {
  %3 = alloca ptr, align 8
  %4 = alloca i64, align 8
  store ptr %0, ptr %3, align 8, !tbaa !28
  store i64 %1, ptr %4, align 8, !tbaa !34
  %5 = load ptr, ptr %3, align 8
  %6 = getelementptr inbounds nuw %"class.absl::lts_20240722::AlphaNum", ptr %5, i32 0, i32 0
  %7 = getelementptr inbounds nuw %"class.absl::lts_20240722::AlphaNum", ptr %5, i32 0, i32 1
  %8 = getelementptr inbounds [32 x i8], ptr %7, i64 0, i64 0
  %9 = load i64, ptr %4, align 8, !tbaa !34
  %10 = getelementptr inbounds nuw %"class.absl::lts_20240722::AlphaNum", ptr %5, i32 0, i32 1
  %11 = getelementptr inbounds [32 x i8], ptr %10, i64 0, i64 0
  %12 = call noundef ptr @_ZN4absl12lts_2024072216numbers_internal15FastIntToBufferElPc(i64 noundef %9, ptr noundef %11)
  %13 = getelementptr inbounds nuw %"class.absl::lts_20240722::AlphaNum", ptr %5, i32 0, i32 1
  %14 = getelementptr inbounds [32 x i8], ptr %13, i64 0, i64 0
  %15 = ptrtoint ptr %12 to i64
  %16 = ptrtoint ptr %14 to i64
  %17 = sub i64 %15, %16
  call void @_ZNSt17basic_string_viewIcSt11char_traitsIcEEC2EPKcm(ptr noundef nonnull align 8 dereferenceable(16) %6, ptr noundef %8, i64 noundef %17) #3
  ret void
}

; Function Attrs: mustprogress uwtable
define linkonce_odr void @_ZN4absl12lts_202407228AlphaNumC2EPKc(ptr noundef nonnull align 8 dereferenceable(48) %0, ptr noundef %1) unnamed_addr #4 comdat align 2 {
  %3 = alloca ptr, align 8
  %4 = alloca ptr, align 8
  store ptr %0, ptr %3, align 8, !tbaa !28
  store ptr %1, ptr %4, align 8, !tbaa !10
  %5 = load ptr, ptr %3, align 8
  %6 = load ptr, ptr %4, align 8, !tbaa !10
  %7 = call { i64, ptr } @_ZN4absl12lts_2024072218NullSafeStringViewEPKc(ptr noundef %6)
  %8 = getelementptr inbounds nuw { i64, ptr }, ptr %5, i32 0, i32 0
  %9 = extractvalue { i64, ptr } %7, 0
  store i64 %9, ptr %8, align 8
  %10 = getelementptr inbounds nuw { i64, ptr }, ptr %5, i32 0, i32 1
  %11 = extractvalue { i64, ptr } %7, 1
  store ptr %11, ptr %10, align 8
  ret void
}

; Function Attrs: mustprogress uwtable
define void @_ZNK9grpc_core6chttp220TransportFlowControl5Stats8ToStringB5cxx11Ev(ptr dead_on_unwind noalias writable sret(%"class.std::__cxx11::basic_string") align 8 %0, ptr noundef nonnull align 8 dereferenceable(88) %1) #4 align 2 {
  %3 = alloca ptr, align 8
  %4 = alloca ptr, align 8
  %5 = alloca %"class.absl::lts_20240722::AlphaNum", align 8
  %6 = alloca %"class.absl::lts_20240722::AlphaNum", align 8
  %7 = alloca %"class.absl::lts_20240722::AlphaNum", align 8
  %8 = alloca %"class.absl::lts_20240722::AlphaNum", align 8
  %9 = alloca %"class.absl::lts_20240722::AlphaNum", align 8
  store ptr %0, ptr %3, align 8
  store ptr %1, ptr %4, align 8, !tbaa !134
  %10 = load ptr, ptr %4, align 8
  call void @llvm.lifetime.start.p0(i64 48, ptr %5) #3
  call void @_ZN4absl12lts_202407228AlphaNumC2EPKc(ptr noundef nonnull align 8 dereferenceable(48) %5, ptr noundef @.str.16)
  call void @llvm.lifetime.start.p0(i64 48, ptr %6) #3
  %11 = getelementptr inbounds nuw %"struct.grpc_core::chttp2::TransportFlowControl::Stats", ptr %10, i32 0, i32 0
  %12 = load i64, ptr %11, align 8, !tbaa !136
  call void @_ZN4absl12lts_202407228AlphaNumC2El(ptr noundef nonnull align 8 dereferenceable(48) %6, i64 noundef %12)
  call void @llvm.lifetime.start.p0(i64 48, ptr %7) #3
  call void @_ZN4absl12lts_202407228AlphaNumC2EPKc(ptr noundef nonnull align 8 dereferenceable(48) %7, ptr noundef @.str.17)
  call void @llvm.lifetime.start.p0(i64 48, ptr %8) #3
  %13 = getelementptr inbounds nuw %"struct.grpc_core::chttp2::TransportFlowControl::Stats", ptr %10, i32 0, i32 1
  %14 = load i64, ptr %13, align 8, !tbaa !138
  call void @_ZN4absl12lts_202407228AlphaNumC2El(ptr noundef nonnull align 8 dereferenceable(48) %8, i64 noundef %14)
  call void @llvm.lifetime.start.p0(i64 48, ptr %9) #3
  call void @_ZN4absl12lts_202407228AlphaNumC2EPKc(ptr noundef nonnull align 8 dereferenceable(48) %9, ptr noundef @.str.18)
  %15 = getelementptr inbounds nuw %"struct.grpc_core::chttp2::TransportFlowControl::Stats", ptr %10, i32 0, i32 2
  %16 = getelementptr inbounds nuw %"struct.grpc_core::chttp2::TransportFlowControl::Stats", ptr %10, i32 0, i32 3
  %17 = getelementptr inbounds nuw %"struct.grpc_core::chttp2::TransportFlowControl::Stats", ptr %10, i32 0, i32 4
  %18 = getelementptr inbounds nuw %"struct.grpc_core::chttp2::TransportFlowControl::Stats", ptr %10, i32 0, i32 5
  %19 = getelementptr inbounds nuw %"struct.grpc_core::chttp2::TransportFlowControl::Stats", ptr %10, i32 0, i32 6
  %20 = getelementptr inbounds nuw %"struct.grpc_core::chttp2::TransportFlowControl::Stats", ptr %10, i32 0, i32 7
  %21 = getelementptr inbounds nuw %"struct.grpc_core::chttp2::TransportFlowControl::Stats", ptr %10, i32 0, i32 8
  %22 = getelementptr inbounds nuw %"struct.grpc_core::chttp2::TransportFlowControl::Stats", ptr %10, i32 0, i32 9
  %23 = getelementptr inbounds nuw %"struct.grpc_core::chttp2::TransportFlowControl::Stats", ptr %10, i32 0, i32 10
  %24 = getelementptr inbounds nuw %"struct.grpc_core::chttp2::TransportFlowControl::Stats", ptr %10, i32 0, i32 11
  call void @_ZN4absl12lts_202407226StrCatIJlA21_cjA22_cjA20_cjA17_clS4_lA47_clA19_clA16_clA14_cdEEENSt7__cxx1112basic_stringIcSt11char_traitsIcESaIcEEERKNS0_8AlphaNumESI_SI_SI_SI_DpRKT_(ptr dead_on_unwind writable sret(%"class.std::__cxx11::basic_string") align 8 %0, ptr noundef nonnull align 8 dereferenceable(48) %5, ptr noundef nonnull align 8 dereferenceable(48) %6, ptr noundef nonnull align 8 dereferenceable(48) %7, ptr noundef nonnull align 8 dereferenceable(48) %8, ptr noundef nonnull align 8 dereferenceable(48) %9, ptr noundef nonnull align 8 dereferenceable(8) %15, ptr noundef nonnull align 1 dereferenceable(21) @.str.19, ptr noundef nonnull align 4 dereferenceable(4) %16, ptr noundef nonnull align 1 dereferenceable(22) @.str.20, ptr noundef nonnull align 4 dereferenceable(4) %17, ptr noundef nonnull align 1 dereferenceable(20) @.str.21, ptr noundef nonnull align 4 dereferenceable(4) %18, ptr noundef nonnull align 1 dereferenceable(17) @.str.22, ptr noundef nonnull align 8 dereferenceable(8) %19, ptr noundef nonnull align 1 dereferenceable(20) @.str.23, ptr noundef nonnull align 8 dereferenceable(8) %20, ptr noundef nonnull align 1 dereferenceable(47) @.str.24, ptr noundef nonnull align 8 dereferenceable(8) %21, ptr noundef nonnull align 1 dereferenceable(19) @.str.25, ptr noundef nonnull align 8 dereferenceable(8) %22, ptr noundef nonnull align 1 dereferenceable(16) @.str.26, ptr noundef nonnull align 8 dereferenceable(8) %23, ptr noundef nonnull align 1 dereferenceable(14) @.str.27, ptr noundef nonnull align 8 dereferenceable(8) %24)
  call void @llvm.lifetime.end.p0(i64 48, ptr %9) #3
  call void @llvm.lifetime.end.p0(i64 48, ptr %8) #3
  call void @llvm.lifetime.end.p0(i64 48, ptr %7) #3
  call void @llvm.lifetime.end.p0(i64 48, ptr %6) #3
  call void @llvm.lifetime.end.p0(i64 48, ptr %5) #3
  ret void
}