; Function Attrs: mustprogress uwtable
define void @_ZNK9grpc_core6chttp220TransportFlowControl5Stats8ToStringB5cxx11Ev(ptr dead_on_unwind noalias writable sret(%"class.std::__cxx11::basic_string") align 8 %0, ptr noundef nonnull align 8 dereferenceable(88) %1) local_unnamed_addr #3 align 2 personality ptr @__gxx_personality_v0 {
  %3 = alloca %"class.absl::lts_20240722::AlphaNum", align 8
  %4 = alloca %"class.absl::lts_20240722::AlphaNum", align 8
  %5 = alloca %"class.absl::lts_20240722::AlphaNum", align 8
  %6 = alloca %"class.absl::lts_20240722::AlphaNum", align 8
  %7 = alloca %"class.absl::lts_20240722::AlphaNum", align 8
  call void @llvm.lifetime.start.p0(i64 48, ptr nonnull %3) #28
  store i64 15, ptr %3, align 8
  %8 = getelementptr inbounds nuw i8, ptr %3, i64 8
  store ptr @.str.16, ptr %8, align 8
  call void @llvm.lifetime.start.p0(i64 48, ptr nonnull %4) #28
  %9 = load i64, ptr %1, align 8, !tbaa !127
  %10 = getelementptr inbounds nuw i8, ptr %4, i64 16
  %11 = call noundef ptr @_ZN4absl12lts_2024072216numbers_internal15FastIntToBufferElPc(i64 noundef %9, ptr noundef nonnull %10)
  %12 = ptrtoint ptr %11 to i64
  %13 = ptrtoint ptr %10 to i64
  %14 = sub i64 %12, %13
  store i64 %14, ptr %4, align 8, !tbaa !25
  %15 = getelementptr inbounds nuw i8, ptr %4, i64 8
  store ptr %10, ptr %15, align 8, !tbaa !27
  call void @llvm.lifetime.start.p0(i64 48, ptr nonnull %5) #28
  store i64 20, ptr %5, align 8
  %16 = getelementptr inbounds nuw i8, ptr %5, i64 8
  store ptr @.str.17, ptr %16, align 8
  call void @llvm.lifetime.start.p0(i64 48, ptr nonnull %6) #28
  %17 = getelementptr inbounds nuw i8, ptr %1, i64 8
  %18 = load i64, ptr %17, align 8, !tbaa !129
  %19 = getelementptr inbounds nuw i8, ptr %6, i64 16
  %20 = call noundef ptr @_ZN4absl12lts_2024072216numbers_internal15FastIntToBufferElPc(i64 noundef %18, ptr noundef nonnull %19)
  %21 = ptrtoint ptr %20 to i64
  %22 = ptrtoint ptr %19 to i64
  %23 = sub i64 %21, %22
  store i64 %23, ptr %6, align 8, !tbaa !25
  %24 = getelementptr inbounds nuw i8, ptr %6, i64 8
  store ptr %19, ptr %24, align 8, !tbaa !27
  call void @llvm.lifetime.start.p0(i64 48, ptr nonnull %7) #28
  store i64 40, ptr %7, align 8
  %25 = getelementptr inbounds nuw i8, ptr %7, i64 8
  store ptr @.str.18, ptr %25, align 8
  %26 = getelementptr inbounds nuw i8, ptr %1, i64 16
  %27 = getelementptr inbounds nuw i8, ptr %1, i64 24
  %28 = getelementptr inbounds nuw i8, ptr %1, i64 28
  %29 = getelementptr inbounds nuw i8, ptr %1, i64 32
  %30 = getelementptr inbounds nuw i8, ptr %1, i64 40
  %31 = getelementptr inbounds nuw i8, ptr %1, i64 48
  %32 = getelementptr inbounds nuw i8, ptr %1, i64 56
  %33 = getelementptr inbounds nuw i8, ptr %1, i64 64
  %34 = getelementptr inbounds nuw i8, ptr %1, i64 72
  %35 = getelementptr inbounds nuw i8, ptr %1, i64 80
  call void @_ZN4absl12lts_202407226StrCatIJlA21_cjA22_cjA20_cjA17_clS4_lA47_clA19_clA16_clA14_cdEEENSt7__cxx1112basic_stringIcSt11char_traitsIcESaIcEEERKNS0_8AlphaNumESI_SI_SI_SI_DpRKT_(ptr dead_on_unwind writable sret(%"class.std::__cxx11::basic_string") align 8 %0, ptr noundef nonnull align 8 dereferenceable(48) %3, ptr noundef nonnull align 8 dereferenceable(48) %4, ptr noundef nonnull align 8 dereferenceable(48) %5, ptr noundef nonnull align 8 dereferenceable(48) %6, ptr noundef nonnull align 8 dereferenceable(48) %7, ptr noundef nonnull align 8 dereferenceable(8) %26, ptr noundef nonnull align 1 dereferenceable(21) @.str.19, ptr noundef nonnull align 4 dereferenceable(4) %27, ptr noundef nonnull align 1 dereferenceable(22) @.str.20, ptr noundef nonnull align 4 dereferenceable(4) %28, ptr noundef nonnull align 1 dereferenceable(20) @.str.21, ptr noundef nonnull align 4 dereferenceable(4) %29, ptr noundef nonnull align 1 dereferenceable(17) @.str.22, ptr noundef nonnull align 8 dereferenceable(8) %30, ptr noundef nonnull align 1 dereferenceable(20) @.str.23, ptr noundef nonnull align 8 dereferenceable(8) %31, ptr noundef nonnull align 1 dereferenceable(47) @.str.24, ptr noundef nonnull align 8 dereferenceable(8) %32, ptr noundef nonnull align 1 dereferenceable(19) @.str.25, ptr noundef nonnull align 8 dereferenceable(8) %33, ptr noundef nonnull align 1 dereferenceable(16) @.str.26, ptr noundef nonnull align 8 dereferenceable(8) %34, ptr noundef nonnull align 1 dereferenceable(14) @.str.27, ptr noundef nonnull align 8 dereferenceable(8) %35)
  call void @llvm.lifetime.end.p0(i64 48, ptr nonnull %7) #28
  call void @llvm.lifetime.end.p0(i64 48, ptr nonnull %6) #28
  call void @llvm.lifetime.end.p0(i64 48, ptr nonnull %5) #28
  call void @llvm.lifetime.end.p0(i64 48, ptr nonnull %4) #28
  call void @llvm.lifetime.end.p0(i64 48, ptr nonnull %3) #28
  ret void
}